target datalayout = "e-m:e-p270:32:32-p271:32:32-p272:64:64-i64:64-i128:128-f80:128-n8:16:32:64-S128"
target triple = "x86_64-pc-linux-gnu"

%struct.Context = type { i32, i32, i32, i32, i32, i32, i32, i32, i32, i32, i32, i32, ptr, ptr, ptr, [80 x i8], i64, i64, i32, [24 x i32], i64, i64, i32, ptr, ptr, i64, ptr, ptr, ptr, i32, i32, i32, ptr, ptr, ptr, ptr, ptr, i64, ptr, ptr, i64, ptr, i64, ptr, i64, i64, i64, i64 }

@stderr = external global ptr, align 8
@.str.51 = private unnamed_addr constant [3 x i8] c"rb\00", align 1
@.str.58 = private unnamed_addr constant [4 x i8] c"con\00", align 1
@.str.62 = private unnamed_addr constant [44 x i8] c"empty output file name for [%s] input file\0A\00", align 1
@.str.63 = private unnamed_addr constant [33 x i8] c"input file [%s] suffix mismatch\0A\00", align 1

; Function Attrs: nounwind uwtable
define internal ptr @PrintablePath(ptr noundef %0) #0 {
  %2 = alloca ptr, align 8
  store ptr %0, ptr %2, align 8, !tbaa !56
  %3 = load ptr, ptr %2, align 8, !tbaa !56
  %4 = icmp ne ptr %3, null
  br i1 %4, label %5, label %7

5:                                                ; preds = %1
  %6 = load ptr, ptr %2, align 8, !tbaa !56
  br label %8

7:                                                ; preds = %1
  br label %8

8:                                                ; preds = %7, %5
  %9 = phi ptr [ %6, %5 ], [ @.str.58, %7 ]
  ret ptr %9
}

; Function Attrs: nounwind uwtable
define internal ptr @FileName(ptr noundef %0) #0 {
  %2 = alloca ptr, align 8
  %3 = alloca ptr, align 8
  store ptr %0, ptr %2, align 8, !tbaa !56
  call void @llvm.lifetime.start.p0(i64 8, ptr %3) #8
  %4 = load ptr, ptr %2, align 8, !tbaa !56
  %5 = call ptr @strrchr(ptr noundef %4, i32 noundef 47) #9
  store ptr %5, ptr %3, align 8, !tbaa !56
  %6 = load ptr, ptr %3, align 8, !tbaa !56
  %7 = icmp ne ptr %6, null
  br i1 %7, label %8, label %11

8:                                                ; preds = %1
  %9 = load ptr, ptr %3, align 8, !tbaa !56
  %10 = getelementptr inbounds i8, ptr %9, i64 1
  store ptr %10, ptr %2, align 8, !tbaa !56
  br label %11

11:                                               ; preds = %8, %1
  %12 = load ptr, ptr %2, align 8, !tbaa !56
  %13 = call ptr @strrchr(ptr noundef %12, i32 noundef 92) #9
  store ptr %13, ptr %3, align 8, !tbaa !56
  %14 = load ptr, ptr %3, align 8, !tbaa !56
  %15 = icmp ne ptr %14, null
  br i1 %15, label %16, label %19

16:                                               ; preds = %11
  %17 = load ptr, ptr %3, align 8, !tbaa !56
  %18 = getelementptr inbounds i8, ptr %17, i64 1
  store ptr %18, ptr %2, align 8, !tbaa !56
  br label %19

19:                                               ; preds = %16, %11
  %20 = load ptr, ptr %2, align 8, !tbaa !56
  call void @llvm.lifetime.end.p0(i64 8, ptr %3) #8
  ret ptr %20
}

; Function Attrs: nounwind uwtable
define internal i64 @FileSize(ptr noundef %0) #0 {
  %2 = alloca i64, align 8
  %3 = alloca ptr, align 8
  %4 = alloca ptr, align 8
  %5 = alloca i64, align 8
  %6 = alloca i32, align 4
  store ptr %0, ptr %3, align 8, !tbaa !56
  call void @llvm.lifetime.start.p0(i64 8, ptr %4) #8
  %7 = load ptr, ptr %3, align 8, !tbaa !56
  %8 = call noalias ptr @fopen(ptr noundef %7, ptr noundef @.str.51)
  store ptr %8, ptr %4, align 8, !tbaa !53
  call void @llvm.lifetime.start.p0(i64 8, ptr %5) #8
  %9 = load ptr, ptr %4, align 8, !tbaa !53
  %10 = icmp eq ptr %9, null
  br i1 %10, label %11, label %12

11:                                               ; preds = %1
  store i64 -1, ptr %2, align 8
  store i32 1, ptr %6, align 4
  br label %28

12:                                               ; preds = %1
  %13 = load ptr, ptr %4, align 8, !tbaa !53
  %14 = call i32 @fseek(ptr noundef %13, i64 noundef 0, i32 noundef 2)
  %15 = icmp ne i32 %14, 0
  br i1 %15, label %16, label %19

16:                                               ; preds = %12
  %17 = load ptr, ptr %4, align 8, !tbaa !53
  %18 = call i32 @fclose(ptr noundef %17)
  store i64 -1, ptr %2, align 8
  store i32 1, ptr %6, align 4
  br label %28

19:                                               ; preds = %12
  %20 = load ptr, ptr %4, align 8, !tbaa !53
  %21 = call i64 @ftell(ptr noundef %20)
  store i64 %21, ptr %5, align 8, !tbaa !52
  %22 = load ptr, ptr %4, align 8, !tbaa !53
  %23 = call i32 @fclose(ptr noundef %22)
  %24 = icmp ne i32 %23, 0
  br i1 %24, label %25, label %26

25:                                               ; preds = %19
  store i64 -1, ptr %2, align 8
  store i32 1, ptr %6, align 4
  br label %28

26:                                               ; preds = %19
  %27 = load i64, ptr %5, align 8, !tbaa !52
  store i64 %27, ptr %2, align 8
  store i32 1, ptr %6, align 4
  br label %28

28:                                               ; preds = %26, %25, %16, %11
  call void @llvm.lifetime.end.p0(i64 8, ptr %5) #8
  call void @llvm.lifetime.end.p0(i64 8, ptr %4) #8
  %29 = load i64, ptr %2, align 8
  ret i64 %29
}

; Function Attrs: nounwind uwtable
define internal i32 @NextFile(ptr noundef %0) #0 {
  %2 = alloca i32, align 4
  %3 = alloca ptr, align 8
  %4 = alloca ptr, align 8
  %5 = alloca i64, align 8
  %6 = alloca i32, align 4
  %7 = alloca i64, align 8
  %8 = alloca ptr, align 8
  %9 = alloca ptr, align 8
  %10 = alloca i64, align 8
  store ptr %0, ptr %3, align 8, !tbaa !57
  call void @llvm.lifetime.start.p0(i64 8, ptr %4) #8
  call void @llvm.lifetime.start.p0(i64 8, ptr %5) #8
  %11 = load ptr, ptr %3, align 8, !tbaa !57
  %12 = getelementptr inbounds nuw %struct.Context, ptr %11, i32 0, i32 29
  %13 = load i32, ptr %12, align 8, !tbaa !44
  %14 = add nsw i32 %13, 1
  store i32 %14, ptr %12, align 8, !tbaa !44
  %15 = load ptr, ptr %3, align 8, !tbaa !57
  %16 = getelementptr inbounds nuw %struct.Context, ptr %15, i32 0, i32 37
  store i64 -1, ptr %16, align 8, !tbaa !63
  %17 = load ptr, ptr %3, align 8, !tbaa !57
  %18 = getelementptr inbounds nuw %struct.Context, ptr %17, i32 0, i32 21
  %19 = load i64, ptr %18, align 8, !tbaa !36
  %20 = icmp eq i64 %19, 0
  br i1 %20, label %21, label %35

21:                                               ; preds = %1
  %22 = load ptr, ptr %3, align 8, !tbaa !57
  %23 = getelementptr inbounds nuw %struct.Context, ptr %22, i32 0, i32 29
  %24 = load i32, ptr %23, align 8, !tbaa !44
  %25 = icmp sgt i32 %24, 1
  br i1 %25, label %26, label %27

26:                                               ; preds = %21
  store i32 0, ptr %2, align 4
  store i32 1, ptr %6, align 4
  br label %190

27:                                               ; preds = %21
  %28 = load ptr, ptr %3, align 8, !tbaa !57
  %29 = getelementptr inbounds nuw %struct.Context, ptr %28, i32 0, i32 35
  store ptr null, ptr %29, align 8, !tbaa !48
  %30 = load ptr, ptr %3, align 8, !tbaa !57
  %31 = getelementptr inbounds nuw %struct.Context, ptr %30, i32 0, i32 12
  %32 = load ptr, ptr %31, align 8, !tbaa !30
  %33 = load ptr, ptr %3, align 8, !tbaa !57
  %34 = getelementptr inbounds nuw %struct.Context, ptr %33, i32 0, i32 36
  store ptr %32, ptr %34, align 8, !tbaa !49
  store i32 1, ptr %2, align 4
  store i32 1, ptr %6, align 4
  br label %190

35:                                               ; preds = %1
  br label %36

36:                                               ; preds = %49, %35
  %37 = load ptr, ptr %3, align 8, !tbaa !57
  %38 = getelementptr inbounds nuw %struct.Context, ptr %37, i32 0, i32 29
  %39 = load i32, ptr %38, align 8, !tbaa !44
  %40 = load ptr, ptr %3, align 8, !tbaa !57
  %41 = getelementptr inbounds nuw %struct.Context, ptr %40, i32 0, i32 19
  %42 = load ptr, ptr %3, align 8, !tbaa !57
  %43 = getelementptr inbounds nuw %struct.Context, ptr %42, i32 0, i32 30
  %44 = load i32, ptr %43, align 4, !tbaa !45
  %45 = sext i32 %44 to i64
  %46 = getelementptr inbounds [24 x i32], ptr %41, i64 0, i64 %45
  %47 = load i32, ptr %46, align 4, !tbaa !4
  %48 = icmp eq i32 %39, %47
  br i1 %48, label %49, label %58

49:                                               ; preds = %36
  %50 = load ptr, ptr %3, align 8, !tbaa !57
  %51 = getelementptr inbounds nuw %struct.Context, ptr %50, i32 0, i32 29
  %52 = load i32, ptr %51, align 8, !tbaa !44
  %53 = add nsw i32 %52, 1
  store i32 %53, ptr %51, align 8, !tbaa !44
  %54 = load ptr, ptr %3, align 8, !tbaa !57
  %55 = getelementptr inbounds nuw %struct.Context, ptr %54, i32 0, i32 30
  %56 = load i32, ptr %55, align 4, !tbaa !45
  %57 = add nsw i32 %56, 1
  store i32 %57, ptr %55, align 4, !tbaa !45
  br label %36, !llvm.loop !75

58:                                               ; preds = %36
  %59 = load ptr, ptr %3, align 8, !tbaa !57
  %60 = getelementptr inbounds nuw %struct.Context, ptr %59, i32 0, i32 29
  %61 = load i32, ptr %60, align 8, !tbaa !44
  %62 = load ptr, ptr %3, align 8, !tbaa !57
  %63 = getelementptr inbounds nuw %struct.Context, ptr %62, i32 0, i32 22
  %64 = load i32, ptr %63, align 8, !tbaa !37
  %65 = icmp sge i32 %61, %64
  br i1 %65, label %66, label %67

66:                                               ; preds = %58
  store i32 0, ptr %2, align 4
  store i32 1, ptr %6, align 4
  br label %190

67:                                               ; preds = %58
  %68 = load ptr, ptr %3, align 8, !tbaa !57
  %69 = getelementptr inbounds nuw %struct.Context, ptr %68, i32 0, i32 23
  %70 = load ptr, ptr %69, align 8, !tbaa !38
  %71 = load ptr, ptr %3, align 8, !tbaa !57
  %72 = getelementptr inbounds nuw %struct.Context, ptr %71, i32 0, i32 29
  %73 = load i32, ptr %72, align 8, !tbaa !44
  %74 = sext i32 %73 to i64
  %75 = getelementptr inbounds ptr, ptr %70, i64 %74
  %76 = load ptr, ptr %75, align 8, !tbaa !56
  store ptr %76, ptr %4, align 8, !tbaa !56
  %77 = load ptr, ptr %4, align 8, !tbaa !56
  %78 = call i64 @strlen(ptr noundef %77) #9
  store i64 %78, ptr %5, align 8, !tbaa !52
  %79 = load i64, ptr %5, align 8, !tbaa !52
  %80 = icmp eq i64 %79, 1
  br i1 %80, label %81, label %95

81:                                               ; preds = %67
  %82 = load ptr, ptr %4, align 8, !tbaa !56
  %83 = getelementptr inbounds i8, ptr %82, i64 0
  %84 = load i8, ptr %83, align 1, !tbaa !58
  %85 = sext i8 %84 to i32
  %86 = icmp eq i32 %85, 45
  br i1 %86, label %87, label %95

87:                                               ; preds = %81
  %88 = load ptr, ptr %3, align 8, !tbaa !57
  %89 = getelementptr inbounds nuw %struct.Context, ptr %88, i32 0, i32 35
  store ptr null, ptr %89, align 8, !tbaa !48
  %90 = load ptr, ptr %3, align 8, !tbaa !57
  %91 = getelementptr inbounds nuw %struct.Context, ptr %90, i32 0, i32 12
  %92 = load ptr, ptr %91, align 8, !tbaa !30
  %93 = load ptr, ptr %3, align 8, !tbaa !57
  %94 = getelementptr inbounds nuw %struct.Context, ptr %93, i32 0, i32 36
  store ptr %92, ptr %94, align 8, !tbaa !49
  store i32 1, ptr %2, align 4
  store i32 1, ptr %6, align 4
  br label %190

95:                                               ; preds = %81, %67
  %96 = load ptr, ptr %4, align 8, !tbaa !56
  %97 = load ptr, ptr %3, align 8, !tbaa !57
  %98 = getelementptr inbounds nuw %struct.Context, ptr %97, i32 0, i32 35
  store ptr %96, ptr %98, align 8, !tbaa !48
  %99 = load ptr, ptr %4, align 8, !tbaa !56
  %100 = call i64 @FileSize(ptr noundef %99)
  %101 = load ptr, ptr %3, align 8, !tbaa !57
  %102 = getelementptr inbounds nuw %struct.Context, ptr %101, i32 0, i32 37
  store i64 %100, ptr %102, align 8, !tbaa !63
  %103 = load ptr, ptr %3, align 8, !tbaa !57
  %104 = getelementptr inbounds nuw %struct.Context, ptr %103, i32 0, i32 12
  %105 = load ptr, ptr %104, align 8, !tbaa !30
  %106 = load ptr, ptr %3, align 8, !tbaa !57
  %107 = getelementptr inbounds nuw %struct.Context, ptr %106, i32 0, i32 36
  store ptr %105, ptr %107, align 8, !tbaa !49
  %108 = load ptr, ptr %3, align 8, !tbaa !57
  %109 = getelementptr inbounds nuw %struct.Context, ptr %108, i32 0, i32 12
  %110 = load ptr, ptr %109, align 8, !tbaa !30
  %111 = icmp ne ptr %110, null
  br i1 %111, label %112, label %113

112:                                              ; preds = %95
  store i32 1, ptr %2, align 4
  store i32 1, ptr %6, align 4
  br label %190

113:                                              ; preds = %95
  %114 = load ptr, ptr %3, align 8, !tbaa !57
  %115 = getelementptr inbounds nuw %struct.Context, ptr %114, i32 0, i32 7
  %116 = load i32, ptr %115, align 4, !tbaa !26
  %117 = icmp ne i32 %116, 0
  br i1 %117, label %118, label %119

118:                                              ; preds = %113
  store i32 1, ptr %2, align 4
  store i32 1, ptr %6, align 4
  br label %190

119:                                              ; preds = %113
  %120 = load ptr, ptr %3, align 8, !tbaa !57
  %121 = getelementptr inbounds nuw %struct.Context, ptr %120, i32 0, i32 28
  %122 = load ptr, ptr %121, align 8, !tbaa !43
  %123 = load ptr, ptr %4, align 8, !tbaa !56
  %124 = call ptr @strcpy(ptr noundef %122, ptr noundef %123) #8
  %125 = load ptr, ptr %3, align 8, !tbaa !57
  %126 = getelementptr inbounds nuw %struct.Context, ptr %125, i32 0, i32 28
  %127 = load ptr, ptr %126, align 8, !tbaa !43
  %128 = load ptr, ptr %3, align 8, !tbaa !57
  %129 = getelementptr inbounds nuw %struct.Context, ptr %128, i32 0, i32 36
  store ptr %127, ptr %129, align 8, !tbaa !49
  %130 = load ptr, ptr %3, align 8, !tbaa !57
  %131 = getelementptr inbounds nuw %struct.Context, ptr %130, i32 0, i32 9
  %132 = load i32, ptr %131, align 4, !tbaa !27
  %133 = icmp ne i32 %132, 0
  br i1 %133, label %134, label %180

134:                                              ; preds = %119
  call void @llvm.lifetime.start.p0(i64 8, ptr %7) #8
  %135 = load ptr, ptr %3, align 8, !tbaa !57
  %136 = getelementptr inbounds nuw %struct.Context, ptr %135, i32 0, i32 14
  %137 = load ptr, ptr %136, align 8, !tbaa !32
  %138 = call i64 @strlen(ptr noundef %137) #9
  store i64 %138, ptr %7, align 8, !tbaa !52
  call void @llvm.lifetime.start.p0(i64 8, ptr %8) #8
  %139 = load ptr, ptr %3, align 8, !tbaa !57
  %140 = getelementptr inbounds nuw %struct.Context, ptr %139, i32 0, i32 28
  %141 = load ptr, ptr %140, align 8, !tbaa !43
  %142 = call ptr @FileName(ptr noundef %141)
  store ptr %142, ptr %8, align 8, !tbaa !56
  call void @llvm.lifetime.start.p0(i64 8, ptr %9) #8
  call void @llvm.lifetime.start.p0(i64 8, ptr %10) #8
  %143 = load ptr, ptr %8, align 8, !tbaa !56
  %144 = call i64 @strlen(ptr noundef %143) #9
  store i64 %144, ptr %10, align 8, !tbaa !52
  %145 = load i64, ptr %10, align 8, !tbaa !52
  %146 = load i64, ptr %7, align 8, !tbaa !52
  %147 = add i64 %146, 1
  %148 = icmp ult i64 %145, %147
  br i1 %148, label %149, label %156

149:                                              ; preds = %134
  %150 = load ptr, ptr @stderr, align 8, !tbaa !53
  %151 = load ptr, ptr %4, align 8, !tbaa !56
  %152 = call ptr @PrintablePath(ptr noundef %151)
  %153 = call i32 (ptr, ptr, ...) @fprintf(ptr noundef %150, ptr noundef @.str.62, ptr noundef %152) #8
  %154 = load ptr, ptr %3, align 8, !tbaa !57
  %155 = getelementptr inbounds nuw %struct.Context, ptr %154, i32 0, i32 31
  store i32 1, ptr %155, align 8, !tbaa !46
  store i32 0, ptr %2, align 4
  store i32 1, ptr %6, align 4
  br label %179

156:                                              ; preds = %134
  %157 = load ptr, ptr %8, align 8, !tbaa !56
  %158 = load i64, ptr %10, align 8, !tbaa !52
  %159 = getelementptr inbounds nuw i8, ptr %157, i64 %158
  %160 = load i64, ptr %7, align 8, !tbaa !52
  %161 = sub i64 0, %160
  %162 = getelementptr inbounds i8, ptr %159, i64 %161
  store ptr %162, ptr %9, align 8, !tbaa !56
  %163 = load ptr, ptr %3, align 8, !tbaa !57
  %164 = getelementptr inbounds nuw %struct.Context, ptr %163, i32 0, i32 14
  %165 = load ptr, ptr %164, align 8, !tbaa !32
  %166 = load ptr, ptr %9, align 8, !tbaa !56
  %167 = call i32 @strcmp(ptr noundef %165, ptr noundef %166) #9
  %168 = icmp ne i32 %167, 0
  br i1 %168, label %169, label %176

169:                                              ; preds = %156
  %170 = load ptr, ptr @stderr, align 8, !tbaa !53
  %171 = load ptr, ptr %4, align 8, !tbaa !56
  %172 = call ptr @PrintablePath(ptr noundef %171)
  %173 = call i32 (ptr, ptr, ...) @fprintf(ptr noundef %170, ptr noundef @.str.63, ptr noundef %172) #8
  %174 = load ptr, ptr %3, align 8, !tbaa !57
  %175 = getelementptr inbounds nuw %struct.Context, ptr %174, i32 0, i32 31
  store i32 1, ptr %175, align 8, !tbaa !46
  store i32 0, ptr %2, align 4
  store i32 1, ptr %6, align 4
  br label %179

176:                                              ; preds = %156
  %177 = load ptr, ptr %9, align 8, !tbaa !56
  %178 = getelementptr inbounds i8, ptr %177, i64 0
  store i8 0, ptr %178, align 1, !tbaa !58
  store i32 1, ptr %2, align 4
  store i32 1, ptr %6, align 4
  br label %179

179:                                              ; preds = %176, %169, %149
  call void @llvm.lifetime.end.p0(i64 8, ptr %10) #8
  call void @llvm.lifetime.end.p0(i64 8, ptr %9) #8
  call void @llvm.lifetime.end.p0(i64 8, ptr %8) #8
  call void @llvm.lifetime.end.p0(i64 8, ptr %7) #8
  br label %190

180:                                              ; preds = %119
  %181 = load ptr, ptr %3, align 8, !tbaa !57
  %182 = getelementptr inbounds nuw %struct.Context, ptr %181, i32 0, i32 28
  %183 = load ptr, ptr %182, align 8, !tbaa !43
  %184 = load i64, ptr %5, align 8, !tbaa !52
  %185 = getelementptr inbounds nuw i8, ptr %183, i64 %184
  %186 = load ptr, ptr %3, align 8, !tbaa !57
  %187 = getelementptr inbounds nuw %struct.Context, ptr %186, i32 0, i32 14
  %188 = load ptr, ptr %187, align 8, !tbaa !32
  %189 = call ptr @strcpy(ptr noundef %185, ptr noundef %188) #8
  store i32 1, ptr %2, align 4
  store i32 1, ptr %6, align 4
  br label %190

190:                                              ; preds = %180, %179, %118, %112, %87, %66, %27, %26
  call void @llvm.lifetime.end.p0(i64 8, ptr %5) #8
  call void @llvm.lifetime.end.p0(i64 8, ptr %4) #8
  %191 = load i32, ptr %2, align 4
  ret i32 %191
}