; Function Attrs: nofree nounwind uwtable
define internal fastcc range(i32 0, 2) i32 @NextFile(ptr noundef nonnull captures(none) initializes((400, 408)) %0) unnamed_addr #12 {
  %2 = getelementptr inbounds nuw i8, ptr %0, i64 344
  %3 = load i32, ptr %2, align 8, !tbaa !68
  %4 = add nsw i32 %3, 1
  store i32 %4, ptr %2, align 8, !tbaa !68
  %5 = getelementptr inbounds nuw i8, ptr %0, i64 400
  store i64 -1, ptr %5, align 8, !tbaa !51
  %6 = getelementptr inbounds nuw i8, ptr %0, i64 280
  %7 = load i64, ptr %6, align 8, !tbaa !22
  %8 = icmp eq i64 %7, 0
  br i1 %8, label %15, label %.preheader

.preheader:                                       ; preds = %1
  %9 = getelementptr inbounds nuw i8, ptr %0, i64 172
  %10 = getelementptr inbounds nuw i8, ptr %0, i64 348
  %.promoted63 = load i32, ptr %10, align 4, !tbaa !69
  %11 = sext i32 %.promoted63 to i64
  %12 = getelementptr inbounds [24 x i32], ptr %9, i64 0, i64 %11
  %13 = load i32, ptr %12, align 4, !tbaa !20
  %14 = icmp eq i32 %4, %13
  br i1 %14, label %.lr.ph, label %._crit_edge

15:                                               ; preds = %1
  %16 = icmp sgt i32 %3, 0
  br i1 %16, label %100, label %17

17:                                               ; preds = %15
  %18 = getelementptr inbounds nuw i8, ptr %0, i64 384
  store ptr null, ptr %18, align 8, !tbaa !61
  %19 = getelementptr inbounds nuw i8, ptr %0, i64 48
  %20 = load ptr, ptr %19, align 8, !tbaa !35
  %21 = getelementptr inbounds nuw i8, ptr %0, i64 392
  store ptr %20, ptr %21, align 8, !tbaa !53
  br label %100

.lr.ph:                                           ; preds = %.preheader, %.lr.ph
  %indvars.iv = phi i64 [ %indvars.iv.next, %.lr.ph ], [ %11, %.preheader ]
  %22 = phi i32 [ %23, %.lr.ph ], [ %4, %.preheader ]
  %23 = add nsw i32 %22, 1
  store i32 %23, ptr %2, align 8, !tbaa !68
  %indvars.iv.next = add nsw i64 %indvars.iv, 1
  %24 = trunc nsw i64 %indvars.iv.next to i32
  store i32 %24, ptr %10, align 4, !tbaa !69
  %25 = getelementptr inbounds [24 x i32], ptr %9, i64 0, i64 %indvars.iv.next
  %26 = load i32, ptr %25, align 4, !tbaa !20
  %27 = icmp eq i32 %23, %26
  br i1 %27, label %.lr.ph, label %._crit_edge, !llvm.loop !70

._crit_edge:                                      ; preds = %.lr.ph, %.preheader
  %.lcssa = phi i32 [ %4, %.preheader ], [ %23, %.lr.ph ]
  %28 = getelementptr inbounds nuw i8, ptr %0, i64 288
  %29 = load i32, ptr %28, align 8, !tbaa !23
  %.not = icmp slt i32 %.lcssa, %29
  br i1 %.not, label %30, label %100

30:                                               ; preds = %._crit_edge
  %31 = getelementptr inbounds nuw i8, ptr %0, i64 296
  %32 = load ptr, ptr %31, align 8, !tbaa !24
  %33 = sext i32 %.lcssa to i64
  %34 = getelementptr inbounds ptr, ptr %32, i64 %33
  %35 = load ptr, ptr %34, align 8, !tbaa !26
  %36 = tail call i64 @strlen(ptr noundef nonnull dereferenceable(1) %35) #22
  %37 = icmp eq i64 %36, 1
  br i1 %37, label %38, label %46

38:                                               ; preds = %30
  %39 = load i8, ptr %35, align 1, !tbaa !27
  %40 = icmp eq i8 %39, 45
  br i1 %40, label %41, label %46

41:                                               ; preds = %38
  %42 = getelementptr inbounds nuw i8, ptr %0, i64 384
  store ptr null, ptr %42, align 8, !tbaa !61
  %43 = getelementptr inbounds nuw i8, ptr %0, i64 48
  %44 = load ptr, ptr %43, align 8, !tbaa !35
  %45 = getelementptr inbounds nuw i8, ptr %0, i64 392
  store ptr %44, ptr %45, align 8, !tbaa !53
  br label %100

46:                                               ; preds = %38, %30
  %47 = getelementptr inbounds nuw i8, ptr %0, i64 384
  store ptr %35, ptr %47, align 8, !tbaa !61
  %48 = tail call noalias ptr @fopen(ptr noundef nonnull readonly %35, ptr noundef nonnull @.str.51)
  %49 = icmp eq ptr %48, null
  br i1 %49, label %FileSize.exit, label %50

50:                                               ; preds = %46
  %51 = tail call i32 @fseek(ptr noundef nonnull %48, i64 noundef 0, i32 noundef 2)
  %.not.i = icmp eq i32 %51, 0
  br i1 %.not.i, label %54, label %52

52:                                               ; preds = %50
  %53 = tail call i32 @fclose(ptr noundef nonnull %48)
  br label %FileSize.exit

54:                                               ; preds = %50
  %55 = tail call i64 @ftell(ptr noundef nonnull %48)
  %56 = tail call i32 @fclose(ptr noundef nonnull %48)
  %.not8.i = icmp eq i32 %56, 0
  %..i = select i1 %.not8.i, i64 %55, i64 -1
  br label %FileSize.exit

FileSize.exit:                                    ; preds = %46, %52, %54
  %.0.i = phi i64 [ -1, %52 ], [ -1, %46 ], [ %..i, %54 ]
  store i64 %.0.i, ptr %5, align 8, !tbaa !51
  %57 = getelementptr inbounds nuw i8, ptr %0, i64 48
  %58 = load ptr, ptr %57, align 8, !tbaa !35
  %59 = getelementptr inbounds nuw i8, ptr %0, i64 392
  store ptr %58, ptr %59, align 8, !tbaa !53
  %.not56 = icmp eq ptr %58, null
  br i1 %.not56, label %60, label %100

60:                                               ; preds = %FileSize.exit
  %61 = getelementptr inbounds nuw i8, ptr %0, i64 28
  %62 = load i32, ptr %61, align 4, !tbaa !29
  %.not57 = icmp eq i32 %62, 0
  br i1 %.not57, label %63, label %100

63:                                               ; preds = %60
  %64 = getelementptr inbounds nuw i8, ptr %0, i64 336
  %65 = load ptr, ptr %64, align 8, !tbaa !48
  %66 = tail call ptr @strcpy(ptr noundef nonnull dereferenceable(1) %65, ptr noundef nonnull dereferenceable(1) %35) #21
  %67 = load ptr, ptr %64, align 8, !tbaa !48
  store ptr %67, ptr %59, align 8, !tbaa !53
  %68 = getelementptr inbounds nuw i8, ptr %0, i64 36
  %69 = load i32, ptr %68, align 4, !tbaa !43
  %.not58 = icmp eq i32 %69, 0
  br i1 %.not58, label %95, label %70

70:                                               ; preds = %63
  %71 = getelementptr inbounds nuw i8, ptr %0, i64 64
  %72 = load ptr, ptr %71, align 8, !tbaa !19
  %73 = tail call i64 @strlen(ptr noundef nonnull dereferenceable(1) %72) #22
  %74 = tail call ptr @strrchr(ptr noundef nonnull readonly dereferenceable(1) %67, i32 noundef 47) #22
  %.not.i60 = icmp eq ptr %74, null
  %75 = getelementptr inbounds nuw i8, ptr %74, i64 1
  %spec.select.i = select i1 %.not.i60, ptr %67, ptr %75
  %76 = tail call ptr @strrchr(ptr noundef nonnull dereferenceable(1) %spec.select.i, i32 noundef 92) #22
  %.not9.i = icmp eq ptr %76, null
  %77 = getelementptr inbounds nuw i8, ptr %76, i64 1
  %.1.i = select i1 %.not9.i, ptr %spec.select.i, ptr %77
  %78 = tail call i64 @strlen(ptr noundef nonnull dereferenceable(1) %.1.i) #22
  %79 = add i64 %73, 1
  %80 = icmp ult i64 %78, %79
  br i1 %80, label %81, label %85

81:                                               ; preds = %70
  %82 = load ptr, ptr @stderr, align 8, !tbaa !30
  %83 = tail call i32 (ptr, ptr, ...) @fprintf(ptr noundef %82, ptr noundef nonnull @.str.62, ptr noundef nonnull %35) #24
  %84 = getelementptr inbounds nuw i8, ptr %0, i64 352
  store i32 1, ptr %84, align 8, !tbaa !67
  br label %100

85:                                               ; preds = %70
  %86 = getelementptr inbounds nuw i8, ptr %.1.i, i64 %78
  %87 = sub i64 0, %73
  %88 = getelementptr inbounds i8, ptr %86, i64 %87
  %89 = tail call i32 @strcmp(ptr noundef nonnull dereferenceable(1) %72, ptr noundef nonnull dereferenceable(1) %88) #22
  %.not59 = icmp eq i32 %89, 0
  br i1 %.not59, label %94, label %90

90:                                               ; preds = %85
  %91 = load ptr, ptr @stderr, align 8, !tbaa !30
  %92 = tail call i32 (ptr, ptr, ...) @fprintf(ptr noundef %91, ptr noundef nonnull @.str.63, ptr noundef nonnull %35) #24
  %93 = getelementptr inbounds nuw i8, ptr %0, i64 352
  store i32 1, ptr %93, align 8, !tbaa !67
  br label %100

94:                                               ; preds = %85
  store i8 0, ptr %88, align 1, !tbaa !27
  br label %100

95:                                               ; preds = %63
  %96 = getelementptr inbounds nuw i8, ptr %67, i64 %36
  %97 = getelementptr inbounds nuw i8, ptr %0, i64 64
  %98 = load ptr, ptr %97, align 8, !tbaa !19
  %99 = tail call ptr @strcpy(ptr noundef nonnull dereferenceable(1) %96, ptr noundef nonnull dereferenceable(1) %98) #21
  br label %100

100:                                              ; preds = %81, %90, %94, %60, %FileSize.exit, %._crit_edge, %15, %95, %41, %17
  %.0 = phi i32 [ 1, %17 ], [ 1, %41 ], [ 1, %95 ], [ 0, %15 ], [ 0, %._crit_edge ], [ 1, %FileSize.exit ], [ 1, %60 ], [ 0, %81 ], [ 0, %90 ], [ 1, %94 ]
  ret i32 %.0
}